; Function Attrs: mustprogress nounwind uwtable
define dso_local noundef zeroext i1 @_ZNK5vcpkg4Json5Value7booleanENS_8LineInfoE(ptr nocapture noundef nonnull readonly align 8 dereferenceable(8) %0, i32 %1, ptr %2) local_unnamed_addr #1 align 2 personality ptr @__gxx_personality_v0 {
  %4 = alloca %"struct.vcpkg::LineInfo", align 8
  store i32 %1, ptr %4, align 8
  %5 = getelementptr inbounds i8, ptr %4, i64 8
  store ptr %2, ptr %5, align 8
  %6 = load ptr, ptr %0, align 8
  %.not.i.i = icmp eq ptr %6, null
  br i1 %.not.i.i, label %_ZNK5vcpkg4Json5Value10is_booleanEv.exit, label %7

7:                                                ; preds = %3
  %8 = load i32, ptr %6, align 8
  %9 = icmp eq i32 %8, 1
  br label %_ZNK5vcpkg4Json5Value10is_booleanEv.exit

_ZNK5vcpkg4Json5Value10is_booleanEv.exit:         ; preds = %3, %7
  %.0.i.i = phi i1 [ %9, %7 ], [ false, %3 ]
  invoke void @_ZN5vcpkg6Checks10check_exitERKNS_8LineInfoEb(ptr noundef nonnull align 8 dereferenceable(16) %4, i1 noundef zeroext %.0.i.i)
          to label %10 unwind label %16

10:                                               ; preds = %_ZNK5vcpkg4Json5Value10is_booleanEv.exit
  %11 = load ptr, ptr %0, align 8
  %12 = getelementptr inbounds i8, ptr %11, i64 8
  %13 = load i8, ptr %12, align 8
  %14 = and i8 %13, 1
  %15 = icmp ne i8 %14, 0
  ret i1 %15

16:                                               ; preds = %_ZNK5vcpkg4Json5Value10is_booleanEv.exit
  %17 = landingpad { ptr, i32 }
          catch ptr null
  %18 = extractvalue { ptr, i32 } %17, 0
  call void @__clang_call_terminate(ptr %18) #25
  unreachable
}